target datalayout = "e-m:e-p270:32:32-p271:32:32-p272:64:64-i64:64-i128:128-f80:128-n8:16:32:64-S128"
target triple = "x86_64-pc-linux-gnu"

%struct.PageHeaderData = type { %struct.PageXLogRecPtr, i16, i16, i16, i16, i16, i16, i32, [0 x %struct.ItemIdData] }
%struct.PageXLogRecPtr = type { i32, i32 }
%struct.ItemIdData = type { i32 }

@LocalBufferBlockPointers = external global ptr, align 8
@BufferBlocks = external global ptr, align 8

; Function Attrs: inlinehint nounwind uwtable
define internal ptr @BufferGetBlock(i32 noundef %0) #2 {
  %2 = alloca ptr, align 8
  %3 = alloca i32, align 4
  store i32 %0, ptr %3, align 4
  %4 = load i32, ptr %3, align 4
  %5 = icmp slt i32 %4, 0
  br i1 %5, label %6, label %14

6:                                                ; preds = %1
  %7 = load ptr, ptr @LocalBufferBlockPointers, align 8
  %8 = load i32, ptr %3, align 4
  %9 = sub i32 0, %8
  %10 = sub i32 %9, 1
  %11 = sext i32 %10 to i64
  %12 = getelementptr inbounds ptr, ptr %7, i64 %11
  %13 = load ptr, ptr %12, align 8
  store ptr %13, ptr %2, align 8
  br label %21

14:                                               ; preds = %1
  %15 = load ptr, ptr @BufferBlocks, align 8
  %16 = load i32, ptr %3, align 4
  %17 = sub i32 %16, 1
  %18 = sext i32 %17 to i64
  %19 = mul i64 %18, 8192
  %20 = getelementptr inbounds nuw i8, ptr %15, i64 %19
  store ptr %20, ptr %2, align 8
  br label %21

21:                                               ; preds = %14, %6
  %22 = load ptr, ptr %2, align 8
  ret ptr %22
}

; Function Attrs: nounwind uwtable
define internal void @page_verify_redirects(ptr noundef %0) #0 {
  %2 = alloca ptr, align 8
  store ptr %0, ptr %2, align 8
  ret void
}

; Function Attrs: inlinehint nounwind uwtable
define internal ptr @PageGetItemId(ptr noundef %0, i16 noundef zeroext %1) #2 {
  %3 = alloca ptr, align 8
  %4 = alloca i16, align 2
  store ptr %0, ptr %3, align 8
  store i16 %1, ptr %4, align 2
  %5 = load ptr, ptr %3, align 8
  %6 = getelementptr inbounds nuw %struct.PageHeaderData, ptr %5, i32 0, i32 8
  %7 = load i16, ptr %4, align 2
  %8 = zext i16 %7 to i32
  %9 = sub i32 %8, 1
  %10 = sext i32 %9 to i64
  %11 = getelementptr inbounds [0 x %struct.ItemIdData], ptr %6, i64 0, i64 %10
  ret ptr %11
}

; Function Attrs: inlinehint nounwind uwtable
define internal ptr @BufferGetPage(i32 noundef %0) #2 {
  %2 = alloca i32, align 4
  store i32 %0, ptr %2, align 4
  %3 = load i32, ptr %2, align 4
  %4 = call ptr @BufferGetBlock(i32 noundef %3)
  ret ptr %4
}

; Function Attrs: nounwind uwtable
define dso_local void @heap_page_prune_execute(i32 noundef %0, i1 noundef zeroext %1, ptr noundef %2, i32 noundef %3, ptr noundef %4, i32 noundef %5, ptr noundef %6, i32 noundef %7) #0 {
  %9 = alloca i32, align 4
  %10 = alloca i8, align 1
  %11 = alloca ptr, align 8
  %12 = alloca i32, align 4
  %13 = alloca ptr, align 8
  %14 = alloca i32, align 4
  %15 = alloca ptr, align 8
  %16 = alloca i32, align 4
  %17 = alloca ptr, align 8
  %18 = alloca ptr, align 8
  %19 = alloca i32, align 4
  %20 = alloca i16, align 2
  %21 = alloca i16, align 2
  %22 = alloca ptr, align 8
  %23 = alloca i32, align 4
  %24 = alloca i16, align 2
  %25 = alloca ptr, align 8
  %26 = alloca i32, align 4
  %27 = alloca i16, align 2
  %28 = alloca ptr, align 8
  store i32 %0, ptr %9, align 4
  %29 = zext i1 %1 to i8
  store i8 %29, ptr %10, align 1
  store ptr %2, ptr %11, align 8
  store i32 %3, ptr %12, align 4
  store ptr %4, ptr %13, align 8
  store i32 %5, ptr %14, align 4
  store ptr %6, ptr %15, align 8
  store i32 %7, ptr %16, align 4
  call void @llvm.lifetime.start.p0(i64 8, ptr %17) #7
  %30 = load i32, ptr %9, align 4
  %31 = call ptr @BufferGetPage(i32 noundef %30)
  store ptr %31, ptr %17, align 8
  call void @llvm.lifetime.start.p0(i64 8, ptr %18) #7
  %32 = load ptr, ptr %11, align 8
  store ptr %32, ptr %18, align 8
  call void @llvm.lifetime.start.p0(i64 4, ptr %19) #7
  store i32 0, ptr %19, align 4
  br label %33

33:                                               ; preds = %63, %8
  %34 = load i32, ptr %19, align 4
  %35 = load i32, ptr %12, align 4
  %36 = icmp slt i32 %34, %35
  br i1 %36, label %38, label %37

37:                                               ; preds = %33
  call void @llvm.lifetime.end.p0(i64 4, ptr %19) #7
  br label %66

38:                                               ; preds = %33
  call void @llvm.lifetime.start.p0(i64 2, ptr %20) #7
  %39 = load ptr, ptr %18, align 8
  %40 = getelementptr inbounds nuw i16, ptr %39, i32 1
  store ptr %40, ptr %18, align 8
  %41 = load i16, ptr %39, align 2
  store i16 %41, ptr %20, align 2
  call void @llvm.lifetime.start.p0(i64 2, ptr %21) #7
  %42 = load ptr, ptr %18, align 8
  %43 = getelementptr inbounds nuw i16, ptr %42, i32 1
  store ptr %43, ptr %18, align 8
  %44 = load i16, ptr %42, align 2
  store i16 %44, ptr %21, align 2
  call void @llvm.lifetime.start.p0(i64 8, ptr %22) #7
  %45 = load ptr, ptr %17, align 8
  %46 = load i16, ptr %20, align 2
  %47 = call ptr @PageGetItemId(ptr noundef %45, i16 noundef zeroext %46)
  store ptr %47, ptr %22, align 8
  %48 = load ptr, ptr %22, align 8
  %49 = load i32, ptr %48, align 4
  %50 = and i32 %49, -98305
  %51 = or i32 %50, 65536
  store i32 %51, ptr %48, align 4
  %52 = load i16, ptr %21, align 2
  %53 = zext i16 %52 to i32
  %54 = load ptr, ptr %22, align 8
  %55 = load i32, ptr %54, align 4
  %56 = and i32 %53, 32767
  %57 = and i32 %55, -32768
  %58 = or i32 %57, %56
  store i32 %58, ptr %54, align 4
  %59 = load ptr, ptr %22, align 8
  %60 = load i32, ptr %59, align 4
  %61 = and i32 %60, 131071
  %62 = or i32 %61, 0
  store i32 %62, ptr %59, align 4
  call void @llvm.lifetime.end.p0(i64 8, ptr %22) #7
  call void @llvm.lifetime.end.p0(i64 2, ptr %21) #7
  call void @llvm.lifetime.end.p0(i64 2, ptr %20) #7
  br label %63

63:                                               ; preds = %38
  %64 = load i32, ptr %19, align 4
  %65 = add i32 %64, 1
  store i32 %65, ptr %19, align 4
  br label %33, !llvm.loop !15

66:                                               ; preds = %37
  %67 = load ptr, ptr %13, align 8
  store ptr %67, ptr %18, align 8
  call void @llvm.lifetime.start.p0(i64 4, ptr %23) #7
  store i32 0, ptr %23, align 4
  br label %68

68:                                               ; preds = %92, %66
  %69 = load i32, ptr %23, align 4
  %70 = load i32, ptr %14, align 4
  %71 = icmp slt i32 %69, %70
  br i1 %71, label %73, label %72

72:                                               ; preds = %68
  call void @llvm.lifetime.end.p0(i64 4, ptr %23) #7
  br label %95

73:                                               ; preds = %68
  call void @llvm.lifetime.start.p0(i64 2, ptr %24) #7
  %74 = load ptr, ptr %18, align 8
  %75 = getelementptr inbounds nuw i16, ptr %74, i32 1
  store ptr %75, ptr %18, align 8
  %76 = load i16, ptr %74, align 2
  store i16 %76, ptr %24, align 2
  call void @llvm.lifetime.start.p0(i64 8, ptr %25) #7
  %77 = load ptr, ptr %17, align 8
  %78 = load i16, ptr %24, align 2
  %79 = call ptr @PageGetItemId(ptr noundef %77, i16 noundef zeroext %78)
  store ptr %79, ptr %25, align 8
  %80 = load ptr, ptr %25, align 8
  %81 = load i32, ptr %80, align 4
  %82 = and i32 %81, -98305
  %83 = or i32 %82, 98304
  store i32 %83, ptr %80, align 4
  %84 = load ptr, ptr %25, align 8
  %85 = load i32, ptr %84, align 4
  %86 = and i32 %85, -32768
  %87 = or i32 %86, 0
  store i32 %87, ptr %84, align 4
  %88 = load ptr, ptr %25, align 8
  %89 = load i32, ptr %88, align 4
  %90 = and i32 %89, 131071
  %91 = or i32 %90, 0
  store i32 %91, ptr %88, align 4
  call void @llvm.lifetime.end.p0(i64 8, ptr %25) #7
  call void @llvm.lifetime.end.p0(i64 2, ptr %24) #7
  br label %92

92:                                               ; preds = %73
  %93 = load i32, ptr %23, align 4
  %94 = add i32 %93, 1
  store i32 %94, ptr %23, align 4
  br label %68, !llvm.loop !16

95:                                               ; preds = %72
  %96 = load ptr, ptr %15, align 8
  store ptr %96, ptr %18, align 8
  call void @llvm.lifetime.start.p0(i64 4, ptr %26) #7
  store i32 0, ptr %26, align 4
  br label %97

97:                                               ; preds = %121, %95
  %98 = load i32, ptr %26, align 4
  %99 = load i32, ptr %16, align 4
  %100 = icmp slt i32 %98, %99
  br i1 %100, label %102, label %101

101:                                              ; preds = %97
  call void @llvm.lifetime.end.p0(i64 4, ptr %26) #7
  br label %124

102:                                              ; preds = %97
  call void @llvm.lifetime.start.p0(i64 2, ptr %27) #7
  %103 = load ptr, ptr %18, align 8
  %104 = getelementptr inbounds nuw i16, ptr %103, i32 1
  store ptr %104, ptr %18, align 8
  %105 = load i16, ptr %103, align 2
  store i16 %105, ptr %27, align 2
  call void @llvm.lifetime.start.p0(i64 8, ptr %28) #7
  %106 = load ptr, ptr %17, align 8
  %107 = load i16, ptr %27, align 2
  %108 = call ptr @PageGetItemId(ptr noundef %106, i16 noundef zeroext %107)
  store ptr %108, ptr %28, align 8
  %109 = load ptr, ptr %28, align 8
  %110 = load i32, ptr %109, align 4
  %111 = and i32 %110, -98305
  %112 = or i32 %111, 0
  store i32 %112, ptr %109, align 4
  %113 = load ptr, ptr %28, align 8
  %114 = load i32, ptr %113, align 4
  %115 = and i32 %114, -32768
  %116 = or i32 %115, 0
  store i32 %116, ptr %113, align 4
  %117 = load ptr, ptr %28, align 8
  %118 = load i32, ptr %117, align 4
  %119 = and i32 %118, 131071
  %120 = or i32 %119, 0
  store i32 %120, ptr %117, align 4
  call void @llvm.lifetime.end.p0(i64 8, ptr %28) #7
  call void @llvm.lifetime.end.p0(i64 2, ptr %27) #7
  br label %121

121:                                              ; preds = %102
  %122 = load i32, ptr %26, align 4
  %123 = add i32 %122, 1
  store i32 %123, ptr %26, align 4
  br label %97, !llvm.loop !17

124:                                              ; preds = %101
  %125 = load i8, ptr %10, align 1, !range !4, !noundef !5
  %126 = trunc i8 %125 to i1
  br i1 %126, label %127, label %129

127:                                              ; preds = %124
  %128 = load ptr, ptr %17, align 8
  call void @PageTruncateLinePointerArray(ptr noundef %128)
  br label %132

129:                                              ; preds = %124
  %130 = load ptr, ptr %17, align 8
  call void @PageRepairFragmentation(ptr noundef %130)
  %131 = load ptr, ptr %17, align 8
  call void @page_verify_redirects(ptr noundef %131)
  br label %132

132:                                              ; preds = %129, %127
  call void @llvm.lifetime.end.p0(i64 8, ptr %18) #7
  call void @llvm.lifetime.end.p0(i64 8, ptr %17) #7
  ret void
}