; Function Attrs: nounwind uwtable
define dso_local void @heap_page_prune_execute(i32 noundef %0, i1 noundef zeroext %1, ptr noundef readonly captures(none) %2, i32 noundef %3, ptr noundef readonly captures(none) %4, i32 noundef %5, ptr noundef readonly captures(none) %6, i32 noundef %7) local_unnamed_addr #0 {
  %9 = icmp slt i32 %0, 0
  br i1 %9, label %10, label %16

10:                                               ; preds = %8
  %11 = load ptr, ptr @LocalBufferBlockPointers, align 8
  %12 = xor i32 %0, -1
  %13 = zext nneg i32 %12 to i64
  %14 = getelementptr inbounds nuw ptr, ptr %11, i64 %13
  %15 = load ptr, ptr %14, align 8
  br label %BufferGetPage.exit

16:                                               ; preds = %8
  %17 = load ptr, ptr @BufferBlocks, align 8
  %18 = add nsw i32 %0, -1
  %19 = sext i32 %18 to i64
  %20 = shl nsw i64 %19, 13
  %21 = getelementptr inbounds nuw i8, ptr %17, i64 %20
  br label %BufferGetPage.exit

BufferGetPage.exit:                               ; preds = %10, %16
  %.0.i.i = phi ptr [ %15, %10 ], [ %21, %16 ]
  %22 = icmp sgt i32 %3, 0
  br i1 %22, label %.lr.ph, label %.preheader39

.lr.ph:                                           ; preds = %BufferGetPage.exit
  %23 = getelementptr inbounds nuw i8, ptr %.0.i.i, i64 24
  br label %26

.preheader39:                                     ; preds = %26, %BufferGetPage.exit
  %24 = icmp sgt i32 %5, 0
  br i1 %24, label %.lr.ph44, label %.preheader

.lr.ph44:                                         ; preds = %.preheader39
  %25 = getelementptr inbounds nuw i8, ptr %.0.i.i, i64 24
  br label %40

26:                                               ; preds = %.lr.ph, %26
  %.041 = phi ptr [ %2, %.lr.ph ], [ %29, %26 ]
  %.03640 = phi i32 [ 0, %.lr.ph ], [ %37, %26 ]
  %27 = getelementptr inbounds nuw i8, ptr %.041, i64 2
  %28 = load i16, ptr %.041, align 2
  %29 = getelementptr inbounds nuw i8, ptr %.041, i64 4
  %30 = load i16, ptr %27, align 2
  %31 = zext i16 %28 to i64
  %32 = add nsw i64 %31, -1
  %33 = getelementptr inbounds [0 x %struct.ItemIdData], ptr %23, i64 0, i64 %32
  %34 = and i16 %30, 32767
  %35 = zext nneg i16 %34 to i32
  %36 = or disjoint i32 %35, 65536
  store i32 %36, ptr %33, align 4
  %37 = add nuw nsw i32 %.03640, 1
  %exitcond.not = icmp eq i32 %37, %3
  br i1 %exitcond.not, label %.preheader39, label %26, !llvm.loop !16

.preheader:                                       ; preds = %40, %.preheader39
  %38 = icmp sgt i32 %7, 0
  br i1 %38, label %.lr.ph47, label %._crit_edge

.lr.ph47:                                         ; preds = %.preheader
  %39 = getelementptr inbounds nuw i8, ptr %.0.i.i, i64 24
  br label %47

40:                                               ; preds = %.lr.ph44, %40
  %.143 = phi ptr [ %4, %.lr.ph44 ], [ %41, %40 ]
  %.03842 = phi i32 [ 0, %.lr.ph44 ], [ %46, %40 ]
  %41 = getelementptr inbounds nuw i8, ptr %.143, i64 2
  %42 = load i16, ptr %.143, align 2
  %43 = zext i16 %42 to i64
  %44 = add nsw i64 %43, -1
  %45 = getelementptr inbounds [0 x %struct.ItemIdData], ptr %25, i64 0, i64 %44
  store i32 98304, ptr %45, align 4
  %46 = add nuw nsw i32 %.03842, 1
  %exitcond48.not = icmp eq i32 %46, %5
  br i1 %exitcond48.not, label %.preheader, label %40, !llvm.loop !17

._crit_edge:                                      ; preds = %47, %.preheader
  br i1 %1, label %54, label %55

47:                                               ; preds = %.lr.ph47, %47
  %.246 = phi ptr [ %6, %.lr.ph47 ], [ %48, %47 ]
  %.03745 = phi i32 [ 0, %.lr.ph47 ], [ %53, %47 ]
  %48 = getelementptr inbounds nuw i8, ptr %.246, i64 2
  %49 = load i16, ptr %.246, align 2
  %50 = zext i16 %49 to i64
  %51 = add nsw i64 %50, -1
  %52 = getelementptr inbounds [0 x %struct.ItemIdData], ptr %39, i64 0, i64 %51
  store i32 0, ptr %52, align 4
  %53 = add nuw nsw i32 %.03745, 1
  %exitcond49.not = icmp eq i32 %53, %7
  br i1 %exitcond49.not, label %._crit_edge, label %47, !llvm.loop !18

54:                                               ; preds = %._crit_edge
  tail call void @PageTruncateLinePointerArray(ptr noundef %.0.i.i) #8
  br label %56

55:                                               ; preds = %._crit_edge
  tail call void @PageRepairFragmentation(ptr noundef %.0.i.i) #8
  br label %56

56:                                               ; preds = %55, %54
  ret void
}